target datalayout = "e-m:e-p270:32:32-p271:32:32-p272:64:64-i64:64-i128:128-f80:128-n8:16:32:64-S128"
target triple = "x86_64-pc-linux-gnu"

; Function Attrs: nounwind uwtable
define internal void @vertical_compose_daub97iL0_12bit(ptr noundef %0, ptr noundef %1, ptr noundef %2, i32 noundef %3) #0 {
  %5 = alloca ptr, align 8
  %6 = alloca ptr, align 8
  %7 = alloca ptr, align 8
  %8 = alloca i32, align 4
  %9 = alloca i32, align 4
  %10 = alloca ptr, align 8
  %11 = alloca ptr, align 8
  %12 = alloca ptr, align 8
  store ptr %0, ptr %5, align 8, !tbaa !44
  store ptr %1, ptr %6, align 8, !tbaa !44
  store ptr %2, ptr %7, align 8, !tbaa !44
  store i32 %3, ptr %8, align 4, !tbaa !11
  call void @llvm.lifetime.start.p0(i64 4, ptr %9) #5
  call void @llvm.lifetime.start.p0(i64 8, ptr %10) #5
  %13 = load ptr, ptr %5, align 8, !tbaa !44
  store ptr %13, ptr %10, align 8, !tbaa !91
  call void @llvm.lifetime.start.p0(i64 8, ptr %11) #5
  %14 = load ptr, ptr %6, align 8, !tbaa !44
  store ptr %14, ptr %11, align 8, !tbaa !91
  call void @llvm.lifetime.start.p0(i64 8, ptr %12) #5
  %15 = load ptr, ptr %7, align 8, !tbaa !44
  store ptr %15, ptr %12, align 8, !tbaa !91
  store i32 0, ptr %9, align 4, !tbaa !11
  br label %16

16:                                               ; preds = %45, %4
  %17 = load i32, ptr %9, align 4, !tbaa !11
  %18 = load i32, ptr %8, align 4, !tbaa !11
  %19 = icmp slt i32 %17, %18
  br i1 %19, label %20, label %48

20:                                               ; preds = %16
  %21 = load ptr, ptr %11, align 8, !tbaa !91
  %22 = load i32, ptr %9, align 4, !tbaa !11
  %23 = sext i32 %22 to i64
  %24 = getelementptr inbounds i32, ptr %21, i64 %23
  %25 = load i32, ptr %24, align 4, !tbaa !11
  %26 = load ptr, ptr %10, align 8, !tbaa !91
  %27 = load i32, ptr %9, align 4, !tbaa !11
  %28 = sext i32 %27 to i64
  %29 = getelementptr inbounds i32, ptr %26, i64 %28
  %30 = load i32, ptr %29, align 4, !tbaa !11
  %31 = load ptr, ptr %12, align 8, !tbaa !91
  %32 = load i32, ptr %9, align 4, !tbaa !11
  %33 = sext i32 %32 to i64
  %34 = getelementptr inbounds i32, ptr %31, i64 %33
  %35 = load i32, ptr %34, align 4, !tbaa !11
  %36 = add i32 %30, %35
  %37 = mul i32 217, %36
  %38 = add i32 %37, 2048
  %39 = ashr i32 %38, 12
  %40 = add i32 %25, %39
  %41 = load ptr, ptr %11, align 8, !tbaa !91
  %42 = load i32, ptr %9, align 4, !tbaa !11
  %43 = sext i32 %42 to i64
  %44 = getelementptr inbounds i32, ptr %41, i64 %43
  store i32 %40, ptr %44, align 4, !tbaa !11
  br label %45

45:                                               ; preds = %20
  %46 = load i32, ptr %9, align 4, !tbaa !11
  %47 = add nsw i32 %46, 1
  store i32 %47, ptr %9, align 4, !tbaa !11
  br label %16, !llvm.loop !153

48:                                               ; preds = %16
  call void @llvm.lifetime.end.p0(i64 8, ptr %12) #5
  call void @llvm.lifetime.end.p0(i64 8, ptr %11) #5
  call void @llvm.lifetime.end.p0(i64 8, ptr %10) #5
  call void @llvm.lifetime.end.p0(i64 4, ptr %9) #5
  ret void
}