; Function Attrs: nofree norecurse nosync nounwind memory(argmem: readwrite) uwtable
define internal void @vertical_compose_daub97iL0_12bit(ptr noundef readonly captures(none) %0, ptr noundef captures(none) %1, ptr noundef readonly captures(none) %2, i32 noundef %3) #3 {
  %5 = icmp sgt i32 %3, 0
  br i1 %5, label %.lr.ph.preheader, label %._crit_edge

.lr.ph.preheader:                                 ; preds = %4
  %wide.trip.count = zext nneg i32 %3 to i64
  br label %.lr.ph

.lr.ph:                                           ; preds = %.lr.ph.preheader, %.lr.ph
  %indvars.iv = phi i64 [ 0, %.lr.ph.preheader ], [ %indvars.iv.next, %.lr.ph ]
  %6 = getelementptr inbounds nuw i32, ptr %1, i64 %indvars.iv
  %7 = load i32, ptr %6, align 4, !tbaa !70
  %8 = getelementptr inbounds nuw i32, ptr %0, i64 %indvars.iv
  %9 = load i32, ptr %8, align 4, !tbaa !70
  %10 = getelementptr inbounds nuw i32, ptr %2, i64 %indvars.iv
  %11 = load i32, ptr %10, align 4, !tbaa !70
  %12 = add i32 %11, %9
  %13 = mul i32 %12, 217
  %14 = add i32 %13, 2048
  %15 = ashr i32 %14, 12
  %16 = add i32 %15, %7
  store i32 %16, ptr %6, align 4, !tbaa !70
  %indvars.iv.next = add nuw nsw i64 %indvars.iv, 1
  %exitcond.not = icmp eq i64 %indvars.iv.next, %wide.trip.count
  br i1 %exitcond.not, label %._crit_edge, label %.lr.ph, !llvm.loop !123

._crit_edge:                                      ; preds = %.lr.ph, %4
  ret void
}